; Function Attrs: mustprogress nofree norecurse nosync nounwind willreturn memory(read, argmem: readwrite, inaccessiblemem: none) uwtable
define internal noundef range(i32 -1, 2) i32 @_ZL10luauF_typeP9lua_StateP10lua_TValueS2_iS2_i(ptr noundef readonly captures(none) %0, ptr noundef writeonly captures(none) %1, ptr noundef readonly captures(none) %2, i32 noundef %3, ptr readnone captures(none) %4, i32 noundef %5) #6 {
  %7 = icmp sgt i32 %5, 0
  %8 = icmp slt i32 %3, 2
  %or.cond = and i1 %8, %7
  br i1 %or.cond, label %9, label %19

9:                                                ; preds = %6
  %10 = getelementptr inbounds nuw i8, ptr %2, i64 12
  %11 = load i32, ptr %10, align 4, !tbaa !4
  %12 = getelementptr inbounds nuw i8, ptr %0, i64 24
  %13 = load ptr, ptr %12, align 8, !tbaa !20
  %14 = getelementptr inbounds nuw i8, ptr %13, i64 2944
  %15 = sext i32 %11 to i64
  %16 = getelementptr inbounds [11 x ptr], ptr %14, i64 0, i64 %15
  %17 = load ptr, ptr %16, align 8, !tbaa !32
  store ptr %17, ptr %1, align 8, !tbaa !9
  %18 = getelementptr inbounds nuw i8, ptr %1, i64 12
  store i32 5, ptr %18, align 4, !tbaa !4
  br label %19

19:                                               ; preds = %6, %9
  %.0 = phi i32 [ 1, %9 ], [ -1, %6 ]
  ret i32 %.0
}